; Function Attrs: mustprogress nofree nounwind memory(argmem: readwrite) uwtable
define internal fastcc noundef ptr @_ZN4absl13time_internal4cctz12_GLOBAL__N_18ParseIntEPKciiPi(ptr noundef nonnull readonly %p, i32 noundef range(i32 -167, 2) %min, i32 noundef range(i32 5, 366) %max, ptr noundef nonnull writeonly captures(none) %vp) unnamed_addr #2 {
entry:
  %0 = load i8, ptr %p, align 1
  %conv17 = sext i8 %0 to i32
  %memchr18 = tail call ptr @memchr(ptr noundef nonnull dereferenceable(1) @_ZN4absl13time_internal4cctz12_GLOBAL__N_17kDigitsE, i32 %conv17, i64 11)
  %tobool.not19 = icmp eq ptr %memchr18, null
  br i1 %tobool.not19, label %return, label %for.body

for.body:                                         ; preds = %entry, %if.end7
  %memchr22 = phi ptr [ %memchr, %if.end7 ], [ %memchr18, %entry ]
  %p.addr.021 = phi ptr [ %incdec.ptr, %if.end7 ], [ %p, %entry ]
  %value.020 = phi i32 [ %add, %if.end7 ], [ 0, %entry ]
  %sub.ptr.lhs.cast = ptrtoint ptr %memchr22 to i64
  %1 = trunc i64 %sub.ptr.lhs.cast to i32
  %conv1 = sub i32 %1, ptrtoint (ptr @_ZN4absl13time_internal4cctz12_GLOBAL__N_17kDigitsE to i32)
  %cmp = icmp sgt i32 %conv1, 9
  br i1 %cmp, label %for.end, label %if.end

if.end:                                           ; preds = %for.body
  %cmp2 = icmp sgt i32 %value.020, 214748364
  br i1 %cmp2, label %return, label %if.end4

if.end4:                                          ; preds = %if.end
  %mul = mul nsw i32 %value.020, 10
  %sub = sub nsw i32 2147483647, %conv1
  %cmp5 = icmp sgt i32 %mul, %sub
  br i1 %cmp5, label %return, label %if.end7

if.end7:                                          ; preds = %if.end4
  %add = add nsw i32 %conv1, %mul
  %incdec.ptr = getelementptr inbounds nuw i8, ptr %p.addr.021, i64 1
  %2 = load i8, ptr %incdec.ptr, align 1
  %conv = sext i8 %2 to i32
  %memchr = tail call ptr @memchr(ptr noundef nonnull dereferenceable(1) @_ZN4absl13time_internal4cctz12_GLOBAL__N_17kDigitsE, i32 %conv, i64 11)
  %tobool.not = icmp eq ptr %memchr, null
  br i1 %tobool.not, label %for.end, label %for.body, !llvm.loop !7

for.end:                                          ; preds = %if.end7, %for.body
  %value.0.lcssa = phi i32 [ %add, %if.end7 ], [ %value.020, %for.body ]
  %p.addr.0.lcssa = phi ptr [ %incdec.ptr, %if.end7 ], [ %p.addr.021, %for.body ]
  %cmp8 = icmp eq ptr %p.addr.0.lcssa, %p
  %cmp9 = icmp slt i32 %value.0.lcssa, %min
  %cmp11 = icmp sgt i32 %value.0.lcssa, %max
  %3 = or i1 %cmp9, %cmp11
  %or.cond14 = select i1 %cmp8, i1 true, i1 %3
  br i1 %or.cond14, label %return, label %if.end13

if.end13:                                         ; preds = %for.end
  store i32 %value.0.lcssa, ptr %vp, align 4
  br label %return

return:                                           ; preds = %if.end4, %if.end, %entry, %for.end, %if.end13
  %retval.0 = phi ptr [ %p.addr.0.lcssa, %if.end13 ], [ null, %for.end ], [ null, %entry ], [ null, %if.end ], [ null, %if.end4 ]
  ret ptr %retval.0
}